target datalayout = "e-m:e-p270:32:32-p271:32:32-p272:64:64-i64:64-i128:128-f80:128-n8:16:32:64-S128"
target triple = "x86_64-pc-linux-gnu"

%struct.code = type { i8, i8, i16 }
%struct.z_stream64_s = type { ptr, i64, i32, i32, ptr, i64, ptr, i64, i32 }
%struct.inflate_state = type { i32, i32, i32, i32, i32, i32, i64, i64, i32, i32, i32, i32, ptr, i64, i32, i32, i32, i32, ptr, ptr, i32, i32, i32, i32, i32, i32, ptr, [320 x i16], [288 x i16], [2048 x %struct.code] }

; Function Attrs: nounwind uwtable
define i32 @inflate64End(ptr noundef %0) #0 {
  %2 = alloca i32, align 4
  %3 = alloca ptr, align 8
  %4 = alloca ptr, align 8
  store ptr %0, ptr %3, align 8
  %5 = load ptr, ptr %3, align 8
  %6 = icmp eq ptr %5, null
  br i1 %6, label %12, label %7

7:                                                ; preds = %1
  %8 = load ptr, ptr %3, align 8
  %9 = getelementptr inbounds %struct.z_stream64_s, ptr %8, i32 0, i32 6
  %10 = load ptr, ptr %9, align 8
  %11 = icmp eq ptr %10, null
  br i1 %11, label %12, label %13

12:                                               ; preds = %7, %1
  store i32 -2, ptr %2, align 4
  br label %31

13:                                               ; preds = %7
  %14 = load ptr, ptr %3, align 8
  %15 = getelementptr inbounds %struct.z_stream64_s, ptr %14, i32 0, i32 6
  %16 = load ptr, ptr %15, align 8
  store ptr %16, ptr %4, align 8
  %17 = load ptr, ptr %4, align 8
  %18 = getelementptr inbounds %struct.inflate_state, ptr %17, i32 0, i32 12
  %19 = load ptr, ptr %18, align 8
  %20 = icmp ne ptr %19, null
  br i1 %20, label %21, label %25

21:                                               ; preds = %13
  %22 = load ptr, ptr %4, align 8
  %23 = getelementptr inbounds %struct.inflate_state, ptr %22, i32 0, i32 12
  %24 = load ptr, ptr %23, align 8
  call void @free(ptr noundef %24) #6
  br label %25

25:                                               ; preds = %21, %13
  %26 = load ptr, ptr %3, align 8
  %27 = getelementptr inbounds %struct.z_stream64_s, ptr %26, i32 0, i32 6
  %28 = load ptr, ptr %27, align 8
  call void @free(ptr noundef %28) #6
  %29 = load ptr, ptr %3, align 8
  %30 = getelementptr inbounds %struct.z_stream64_s, ptr %29, i32 0, i32 6
  store ptr null, ptr %30, align 8
  store i32 0, ptr %2, align 4
  br label %31

31:                                               ; preds = %25, %12
  %32 = load i32, ptr %2, align 4
  ret i32 %32
}