; Function Attrs: mustprogress nounwind willreturn uwtable
define noundef i32 @inflate64End(ptr noundef %0) local_unnamed_addr #7 {
  %2 = icmp eq ptr %0, null
  br i1 %2, label %13, label %3

3:                                                ; preds = %1
  %4 = getelementptr inbounds i8, ptr %0, i64 40
  %5 = load ptr, ptr %4, align 8
  %6 = icmp eq ptr %5, null
  br i1 %6, label %13, label %7

7:                                                ; preds = %3
  %8 = getelementptr inbounds i8, ptr %5, i64 56
  %9 = load ptr, ptr %8, align 8
  %.not = icmp eq ptr %9, null
  br i1 %.not, label %11, label %10

10:                                               ; preds = %7
  tail call void @free(ptr noundef nonnull %9) #11
  %.pre = load ptr, ptr %4, align 8
  br label %11

11:                                               ; preds = %10, %7
  %12 = phi ptr [ %.pre, %10 ], [ %5, %7 ]
  tail call void @free(ptr noundef %12) #11
  store ptr null, ptr %4, align 8
  br label %13

13:                                               ; preds = %1, %3, %11
  %.0 = phi i32 [ 0, %11 ], [ -2, %3 ], [ -2, %1 ]
  ret i32 %.0
}